(dp1
S'files'
p2
(dp3
S'mimetools'
p4
(dp5
S'index'
p6
(dp7
S'html_filename'
p8
S'mimetools.html'
p9
sS'name'
p10
g4
sS'nums'
p11
ccopy_reg
_reconstructor
p12
(ccoverage.results
Numbers
p13
c__builtin__
object
p14
NtRp15
(dp16
S'n_files'
p17
I1
sS'n_branches'
p18
I0
sS'n_statements'
p19
I162
sS'n_excluded'
p20
I0
sS'n_partial_branches'
p21
I0
sS'n_missing'
p22
I162
sS'n_missing_branches'
p23
I0
sbssS'hash'
p24
S'Q\xc4\x87;\xab\x076\x8f\xa2\x14\x8a\x94\xa8{I}'
p25
ssS'json_scanner'
p26
(dp27
g6
(dp28
g8
S'json_scanner.html'
p29
sg10
S'json.scanner'
p30
sg11
g12
(g13
g14
NtRp31
(dp32
g17
I1
sg18
I0
sg19
I52
sg20
I0
sg21
I0
sg22
I52
sg23
I0
sbssg24
S'$\xcb\xac\xc2\x18\x18\xa3\x18a\xf17\x99\xb4\xc6_e'
p33
ssS'xlrd_biffh'
p34
(dp35
g6
(dp36
g8
S'xlrd_biffh.html'
p37
sg10
S'xlrd.biffh'
p38
sg11
g12
(g13
g14
NtRp39
(dp40
g17
I1
sg18
I0
sg19
I320
sg20
I0
sg21
I0
sg22
I171
sg23
I0
sbssg24
S'\xbcu\xa0\r\n\x92\xd2b\xa9c\xa3{\xfdE{\xd0'
p41
ssS'xlrd_licences'
p42
(dp43
g6
(dp44
g8
S'xlrd_licences.html'
p45
sg10
S'xlrd.licences'
p46
sg11
g12
(g13
g14
NtRp47
(dp48
g17
I1
sg18
I0
sg19
I2
sg20
I0
sg21
I0
sg22
I0
sg23
I0
sbssg24
S'4rQ\x82\xf9/\xdb?\n\xd5gP\xaa\xf9~\xf0'
p49
ssS'xlrd_formula'
p50
(dp51
g6
(dp52
g8
S'xlrd_formula.html'
p53
sg10
S'xlrd.formula'
p54
sg11
g12
(g13
g14
NtRp55
(dp56
g17
I1
sg18
I0
sg19
I1305
sg20
I0
sg21
I0
sg22
I1208
sg23
I0
sbssg24
S'~?o\xab\x8b\xb6\x90\xaa\xdb\x8er\xef\xe8\x15Vy'
p57
ssS'utils'
p58
(dp59
g6
(dp60
g8
S'utils.html'
p61
sg10
g58
sg11
g12
(g13
g14
NtRp62
(dp63
g17
I1
sg18
I0
sg19
I0
sg20
I0
sg21
I0
sg22
I0
sg23
I0
sbssg24
S'\xb0\xc8pN\xaf>\xa0\xbaz\x144\xe0A9\xb8?'
p64
ssS'xlrd_xldate'
p65
(dp66
g6
(dp67
g8
S'xlrd_xldate.html'
p68
sg10
S'xlrd.xldate'
p69
sg11
g12
(g13
g14
NtRp70
(dp71
g17
I1
sg18
I0
sg19
I77
sg20
I0
sg21
I0
sg22
I62
sg23
I0
sbssg24
S'\x81\x15\xa8\xb4_\x97\xcd\xc0\xc9o\x8e\x92\xf5\xd1\xf6@'
p72
ssS'couchbase_views'
p73
(dp74
g6
(dp75
g8
S'couchbase_views.html'
p76
sg10
S'couchbase.views'
p77
sg11
g12
(g13
g14
NtRp78
(dp79
g17
I1
sg18
I0
sg19
I0
sg20
I0
sg21
I0
sg22
I0
sg23
I0
sbssg24
S'\xb0\xc8pN\xaf>\xa0\xbaz\x144\xe0A9\xb8?'
p80
ssS'couchbase__pyport'
p81
(dp82
g6
(dp83
g8
S'couchbase__pyport.html'
p84
sg10
S'couchbase._pyport'
p85
sg11
g12
(g13
g14
NtRp86
(dp87
g17
I1
sg18
I0
sg19
I20
sg20
I0
sg21
I0
sg22
I8
sg23
I0
sbssg24
S'K\xe7\x0e\xc5\xdf\x89\xb5\xa6\x84|\xbe\x80\xfe\x1el\xc9'
p88
ssS'sec'
p89
(dp90
g6
(dp91
g8
S'sec.html'
p92
sg10
g89
sg11
g12
(g13
g14
NtRp93
(dp94
g17
I1
sg18
I0
sg19
I0
sg20
I0
sg21
I0
sg22
I0
sg23
I0
sbssg24
S'\xb0\xc8pN\xaf>\xa0\xbaz\x144\xe0A9\xb8?'
p95
ssS'couchbase_user_constants'
p96
(dp97
g6
(dp98
g8
S'couchbase_user_constants.html'
p99
sg10
S'couchbase.user_constants'
p100
sg11
g12
(g13
g14
NtRp101
(dp102
g17
I1
sg18
I0
sg19
I3
sg20
I0
sg21
I0
sg22
I0
sg23
I0
sbssg24
S'\x17\x9d5\xe8\xddB\x1dVL[\xd9\xf3uE\x80\xbe'
p103
ssS'utils_Modulus11'
p104
(dp105
g6
(dp106
g8
S'utils_Modulus11.html'
p107
sg10
S'utils.Modulus11'
p108
sg11
g12
(g13
g14
NtRp109
(dp110
g17
I1
sg18
I0
sg19
I28
sg20
I0
sg21
I0
sg22
I2
sg23
I0
sbssg24
S"\x83,'\x95s\x95\xeat1\xc7\xb6\xcam\xd8\x831"
p111
ssS'calendar'
p112
(dp113
g6
(dp114
g8
S'calendar.html'
p115
sg10
g112
sg11
g12
(g13
g14
NtRp116
(dp117
g17
I1
sg18
I0
sg19
I381
sg20
I0
sg21
I0
sg22
I381
sg23
I0
sbssg24
S'\xa7\nu\xee\x9b\x82\xf4\x99\x1c\xd9m\x01\xce\x89\xbbd'
p118
ssS'ctypes__endian'
p119
(dp120
g6
(dp121
g8
S'ctypes__endian.html'
p122
sg10
S'ctypes._endian'
p123
sg11
g12
(g13
g14
NtRp124
(dp125
g17
I1
sg18
I0
sg19
I34
sg20
I0
sg21
I0
sg22
I34
sg23
I0
sbssg24
S'\xd3\xc5\x9cm~:?\xd1n]\xc0Pr\x0e\xfe\x82'
p126
ssS'xlrd_sheet'
p127
(dp128
g6
(dp129
g8
S'xlrd_sheet.html'
p130
sg10
S'xlrd.sheet'
p131
sg11
g12
(g13
g14
NtRp132
(dp133
g17
I1
sg18
I0
sg19
I1317
sg20
I0
sg21
I0
sg22
I1192
sg23
I0
sbssg24
S'\xea\xd0\x9e\x10\x06.\xed\xddrB\xf9t2\xbfy\xa3'
p134
ssS'xlrd'
p135
(dp136
g6
(dp137
g8
S'xlrd.html'
p138
sg10
g135
sg11
g12
(g13
g14
NtRp139
(dp140
g17
I1
sg18
I0
sg19
I55
sg20
I0
sg21
I0
sg22
I37
sg23
I0
sbssg24
S'\x87\xfe\x13\x8fu3\x17\xfaz\x1b\xe2\xd1\xe0\xcb>6'
p141
ssS'ctypes_macholib_framework'
p142
(dp143
g6
(dp144
g8
S'ctypes_macholib_framework.html'
p145
sg10
S'ctypes.macholib.framework'
p146
sg11
g12
(g13
g14
NtRp147
(dp148
g17
I1
sg18
I0
sg19
I24
sg20
I0
sg21
I0
sg22
I24
sg23
I0
sbssg24
S'\xf2_/\xfeI\x81\x05\xa7\t1\xe1a$6P\n'
p149
ssS'couchbase_exceptions'
p150
(dp151
g6
(dp152
g8
S'couchbase_exceptions.html'
p153
sg10
S'couchbase.exceptions'
p154
sg11
g12
(g13
g14
NtRp155
(dp156
g17
I1
sg18
I0
sg19
I71
sg20
I0
sg21
I0
sg22
I19
sg23
I0
sbssg24
S'E\t^a\xe7_\x8b\xbcCZ\x88YO\xe9{\xa9'
p157
ssS'couchbase_iops_select'
p158
(dp159
g6
(dp160
g8
S'couchbase_iops_select.html'
p161
sg10
S'couchbase.iops.select'
p162
sg11
g12
(g13
g14
NtRp163
(dp164
g17
I1
sg18
I0
sg19
I84
sg20
I0
sg21
I0
sg22
I70
sg23
I0
sbssg24
S'\xca\xa0\xe1_\xd6\xf1\xc0\xe0B\x97\x7f\x04\x9f\xe1\x19\x8d'
p165
ssS'uuid'
p166
(dp167
g6
(dp168
g8
S'uuid.html'
p169
sg10
g166
sg11
g12
(g13
g14
NtRp170
(dp171
g17
I1
sg18
I0
sg19
I293
sg20
I0
sg21
I0
sg22
I293
sg23
I0
sbssg24
S'\x1etq|\xa7\x975\xe6\xb9L\xd2\xdb\xd6\x08\x92}'
p172
ssS'couchbase_items'
p173
(dp174
g6
(dp175
g8
S'couchbase_items.html'
p176
sg10
S'couchbase.items'
p177
sg11
g12
(g13
g14
NtRp178
(dp179
g17
I1
sg18
I0
sg19
I35
sg20
I0
sg21
I0
sg22
I19
sg23
I0
sbssg24
S'\x8e\xb09\xb4\x1d*\x04Bx\xb8\xfe\xeaE\x06\x04\x0c'
p180
ssS'couchbase_connection'
p181
(dp182
g6
(dp183
g8
S'couchbase_connection.html'
p184
sg10
S'couchbase.connection'
p185
sg11
g12
(g13
g14
NtRp186
(dp187
g17
I1
sg18
I0
sg19
I223
sg20
I0
sg21
I0
sg22
I137
sg23
I0
sbssg24
S'\x08\xfe\xe0L\xdd%A/\x9a\x06\xe0\xe1q\x8a\x18O'
p188
ssS'interfaces_scbu'
p189
(dp190
g6
(dp191
S'html_filename'
p192
S'interfaces_scbu.html'
p193
sS'name'
p194
S'interfaces.scbu'
p195
sS'nums'
p196
g12
(g13
g14
NtRp197
(dp198
g17
I1
sg18
I0
sg19
I83
sg20
I0
sg21
I0
sg22
I0
sg23
I0
sbssg24
S'\xebp\x13\xe1\xcc\xaa[\xaa\x18\x97\xf6\xd4\xb8S\x9ea'
p199
ssS'json'
p200
(dp201
g6
(dp202
g8
S'json.html'
p203
sg10
g200
sg11
g12
(g13
g14
NtRp204
(dp205
g17
I1
sg18
I0
sg19
I39
sg20
I0
sg21
I0
sg22
I39
sg23
I0
sbssg24
S'\xbera\x9b2*\x99S@\xe0\xcb\x8e\x86ZN6'
p206
ssS'json_encoder'
p207
(dp208
g6
(dp209
g8
S'json_encoder.html'
p210
sg10
S'json.encoder'
p211
sg11
g12
(g13
g14
NtRp212
(dp213
g17
I1
sg18
I0
sg19
I241
sg20
I0
sg21
I0
sg22
I241
sg23
I0
sbssg24
S'\x9bN&\xb05L\xf9&(\x02^\x05\xa1`6\x1a'
p214
ssS'ctypes_macholib'
p215
(dp216
g6
(dp217
g8
S'ctypes_macholib.html'
p218
sg10
S'ctypes.macholib'
p219
sg11
g12
(g13
g14
NtRp220
(dp221
g17
I1
sg18
I0
sg19
I2
sg20
I0
sg21
I0
sg22
I2
sg23
I0
sbssg24
S'J\xc1\xa4k\xc3\xb2{\xe3\x12\xab\xf9y\x96\xcc\\,'
p222
ssS'ctypes_macholib_dylib'
p223
(dp224
g6
(dp225
g8
S'ctypes_macholib_dylib.html'
p226
sg10
S'ctypes.macholib.dylib'
p227
sg11
g12
(g13
g14
NtRp228
(dp229
g17
I1
sg18
I0
sg19
I21
sg20
I0
sg21
I0
sg22
I21
sg23
I0
sbssg24
S"A\x10!\xb3'M\xbd\x88F\xc2\xe0\x812|A\xf9"
p230
ssS'xlrd_compdoc'
p231
(dp232
g6
(dp233
g8
S'xlrd_compdoc.html'
p234
sg10
S'xlrd.compdoc'
p235
sg11
g12
(g13
g14
NtRp236
(dp237
g17
I1
sg18
I0
sg19
I315
sg20
I0
sg21
I0
sg22
I289
sg23
I0
sbssg24
S'\xb1\xe5[71\x1e\x11\x8e\xda\xeft\x1cL\x18h.'
p238
ssS'couchbase_views_iterator'
p239
(dp240
g6
(dp241
g8
S'couchbase_views_iterator.html'
p242
sg10
S'couchbase.views.iterator'
p243
sg11
g12
(g13
g14
NtRp244
(dp245
g17
I1
sg18
I0
sg19
I131
sg20
I0
sg21
I0
sg22
I41
sg23
I0
sbssg24
S'\x9e\xc8\xca(a\xbd\xe1DVa\xff\xe2e.\xa1A'
p246
ssS'ctypes_util'
p247
(dp248
g6
(dp249
g8
S'ctypes_util.html'
p250
sg10
S'ctypes.util'
p251
sg11
g12
(g13
g14
NtRp252
(dp253
g17
I1
sg18
I0
sg19
I183
sg20
I0
sg21
I0
sg22
I183
sg23
I0
sbssg24
S'\x9cWH\x0b\x9f\xbc\xd5\xb0\xeb\xe5\xb0\xfeH\x8c6\x98'
p254
ssS'couchbase_iops'
p255
(dp256
g6
(dp257
g8
S'couchbase_iops.html'
p258
sg10
S'couchbase.iops'
p259
sg11
g12
(g13
g14
NtRp260
(dp261
g17
I1
sg18
I0
sg19
I0
sg20
I0
sg21
I0
sg22
I0
sg23
I0
sbssg24
S'\xb0\xc8pN\xaf>\xa0\xbaz\x144\xe0A9\xb8?'
p262
ssS'rfc822'
p263
(dp264
g6
(dp265
g8
S'rfc822.html'
p266
sg10
g263
sg11
g12
(g13
g14
NtRp267
(dp268
g17
I1
sg18
I0
sg19
I574
sg20
I0
sg21
I0
sg22
I574
sg23
I0
sbssg24
S'\xe8]\x803\xc9\tvu\xb7\x08bj\xc6xC)'
p269
ssS'interfaces'
p270
(dp271
g6
(dp272
g8
S'interfaces.html'
p273
sg10
g270
sg11
g12
(g13
g14
NtRp274
(dp275
g17
I1
sg18
I0
sg19
I0
sg20
I0
sg21
I0
sg22
I0
sg23
I0
sbssg24
S'S@\xea@\xeb23\x8er\xdd\xfcO\xc6!;\xc8'
p276
ssS'couchbase__version'
p277
(dp278
g6
(dp279
g8
S'couchbase__version.html'
p280
sg10
S'couchbase._version'
p281
sg11
g12
(g13
g14
NtRp282
(dp283
g17
I1
sg18
I0
sg19
I1
sg20
I0
sg21
I0
sg22
I0
sg23
I0
sbssg24
S'-\x82*rf\xe4C\x88s\xcc\xee\xf0I\xb19\xe7'
p284
ssS'encodings_latin_1'
p285
(dp286
g6
(dp287
g8
S'encodings_latin_1.html'
p288
sg10
S'encodings.latin_1'
p289
sg11
g12
(g13
g14
NtRp290
(dp291
g17
I1
sg18
I0
sg19
I19
sg20
I0
sg21
I0
sg22
I19
sg23
I0
sbssg24
S"0\xd1.\xd3'V\x08\xd1\xa0\xd9\x9b\xc5\xb8pw}"
p292
ssS'store_Store'
p293
(dp294
g6
(dp295
S'html_filename'
p296
S'store_Store.html'
p297
sS'name'
p298
S'store.Store'
p299
sS'nums'
p300
g12
(g13
g14
NtRp301
(dp302
g17
I1
sg18
I0
sg19
I191
sg20
I0
sg21
I0
sg22
I121
sg23
I0
sbssg24
S'\xa4\x97e\xec\xe7\x04\xd8\x8f\xf2\x99u\xcf\x1b\xf0\xec\xf9'
p303
ssS'urllib2'
p304
(dp305
g6
(dp306
g8
S'urllib2.html'
p307
sg10
g304
sg11
g12
(g13
g14
NtRp308
(dp309
g17
I1
sg18
I0
sg19
I807
sg20
I0
sg21
I0
sg22
I807
sg23
I0
sbssg24
S'\xa6\x01\x9ao\xe2Y\xa1 ,g\xd5\x97*\xbcq\x96'
p310
ssS'ctypes'
p311
(dp312
g6
(dp313
g8
S'ctypes.html'
p314
sg10
g311
sg11
g12
(g13
g14
NtRp315
(dp316
g17
I1
sg18
I0
sg19
I335
sg20
I0
sg21
I0
sg22
I335
sg23
I0
sbssg24
S'!\xa1%\xd5c\xe9\x83\x15\xbe?]\xc7\x1b\xffE!'
p317
ssS'ctypes_macholib_dyld'
p318
(dp319
g6
(dp320
g8
S'ctypes_macholib_dyld.html'
p321
sg10
S'ctypes.macholib.dyld'
p322
sg11
g12
(g13
g14
NtRp323
(dp324
g17
I1
sg18
I0
sg19
I95
sg20
I0
sg21
I0
sg22
I95
sg23
I0
sbssg24
S'\x11\x9e\xb5\xf8l\x9cag\x94\x95\xfa\xac&,\x13\xed'
p325
ssS'couchbase_views_params'
p326
(dp327
g6
(dp328
g8
S'couchbase_views_params.html'
p329
sg10
S'couchbase.views.params'
p330
sg11
g12
(g13
g14
NtRp331
(dp332
g17
I1
sg18
I0
sg19
I251
sg20
I0
sg21
I0
sg22
I105
sg23
I0
sbssg24
S'O\x8a\x05\x90\xc4\x05\x17\xd3\xb29\x16\xda4\x15\xb0\x83'
p333
ssS'couchbase__bootstrap'
p334
(dp335
g6
(dp336
g8
S'couchbase__bootstrap.html'
p337
sg10
S'couchbase._bootstrap'
p338
sg11
g12
(g13
g14
NtRp339
(dp340
g17
I1
sg18
I0
sg19
I44
sg20
I0
sg21
I0
sg22
I29
sg23
I0
sbssg24
S'\x8fr\xdb\xa9\x0e{4\xdc\x97\xc3\xb1\x83Vy;\xb2'
p341
ssS'xlrd_timemachine'
p342
(dp343
g6
(dp344
g8
S'xlrd_timemachine.html'
p345
sg10
S'xlrd.timemachine'
p346
sg11
g12
(g13
g14
NtRp347
(dp348
g17
I1
sg18
I0
sg19
I34
sg20
I0
sg21
I0
sg22
I20
sg23
I0
sbssg24
S'\xd0\xfa\x9c\xd8\xf3-F\xe7\x10\xaa\x82\x8f\x8dl\xa2\xf4'
p349
ssS'json_decoder'
p350
(dp351
g6
(dp352
g8
S'json_decoder.html'
p353
sg10
S'json.decoder'
p354
sg11
g12
(g13
g14
NtRp355
(dp356
g17
I1
sg18
I0
sg19
I222
sg20
I0
sg21
I0
sg22
I222
sg23
I0
sbssg24
S'\xcb$\xe4\x1e\xb8t\xdeZ\xf1=\xd0\x1eK\xe8"\xbf'
p357
ssS'httplib'
p358
(dp359
g6
(dp360
g8
S'httplib.html'
p361
sg10
g358
sg11
g12
(g13
g14
NtRp362
(dp363
g17
I1
sg18
I0
sg19
I744
sg20
I0
sg21
I0
sg22
I744
sg23
I0
sbssg24
S'm\xb0\x9bd\x10\xbe6\xb1\xa6\x01k\x17f|s\xdb'
p364
ssS'modules_Location'
p365
(dp366
g6
(dp367
g192
S'modules_Location.html'
p368
sg194
S'modules.Location'
p369
sg196
g12
(g13
g14
NtRp370
(dp371
g17
I1
sg18
I0
sg19
I26
sg20
I0
sg21
I0
sg22
I0
sg23
I0
sbssg24
S'c\xdd\x9f\xb9\xe5\xeb\xd7\xfbD*tD\xcc\xb6u\x08'
p372
ssS'xlrd_book'
p373
(dp374
g6
(dp375
g8
S'xlrd_book.html'
p376
sg10
S'xlrd.book'
p377
sg11
g12
(g13
g14
NtRp378
(dp379
g17
I1
sg18
I0
sg19
I900
sg20
I0
sg21
I0
sg22
I785
sg23
I0
sbssg24
S'I\xbfRVL3\xb9jP]`M\xd2.\xef\xef'
p380
ssS'couchbase'
p381
(dp382
g6
(dp383
g8
S'couchbase.html'
p384
sg10
g381
sg11
g12
(g13
g14
NtRp385
(dp386
g17
I1
sg18
I0
sg19
I17
sg20
I0
sg21
I0
sg22
I6
sg23
I0
sbssg24
S'qq\xab\x94\xc9`\x8e\x15c\xeew\xfc\x1c\x94\x1e\x07'
p387
ssS'modules'
p388
(dp389
g6
(dp390
g8
S'modules.html'
p391
sg10
g388
sg11
g12
(g13
g14
NtRp392
(dp393
g17
I1
sg18
I0
sg19
I0
sg20
I0
sg21
I0
sg22
I0
sg23
I0
sbssg24
S'\xb0\xc8pN\xaf>\xa0\xbaz\x144\xe0A9\xb8?'
p394
ssS'modules_Antibiogram'
p395
(dp396
g6
(dp397
S'html_filename'
p398
S'modules_Antibiogram.html'
p399
sS'name'
p400
S'modules.Antibiogram'
p401
sS'nums'
p402
g12
(g13
g14
NtRp403
(dp404
g17
I1
sg18
I0
sg19
I36
sg20
I0
sg21
I0
sg22
I1
sg23
I0
sbssg24
S'\xf2\xecf\x17P\x17\xec\x0f\xa6 #S\x03\x1b\x1f\xfd'
p405
ssS'xlrd_info'
p406
(dp407
g6
(dp408
g8
S'xlrd_info.html'
p409
sg10
S'xlrd.info'
p410
sg11
g12
(g13
g14
NtRp411
(dp412
g17
I1
sg18
I0
sg19
I1
sg20
I0
sg21
I0
sg22
I0
sg23
I0
sbssg24
S'\xc3\xd3\x1cVM\xc8\x95\x0b9\x88\x17\x9a\xb1\\\x80\xdb'
p413
ssS'_strptime'
p414
(dp415
g6
(dp416
g8
S'_strptime.html'
p417
sg10
g414
sg11
g12
(g13
g14
NtRp418
(dp419
g17
I1
sg18
I0
sg19
I231
sg20
I0
sg21
I0
sg22
I231
sg23
I0
sbssg24
S'\xe4\xca?\xe7X\xce\xc0f\\/\x9a"\xc3\x90\x17_'
p420
ssS'xlrd_formatting'
p421
(dp422
g6
(dp423
g8
S'xlrd_formatting.html'
p424
sg10
S'xlrd.formatting'
p425
sg11
g12
(g13
g14
NtRp426
(dp427
g17
I1
sg18
I0
sg19
I555
sg20
I0
sg21
I0
sg22
I443
sg23
I0
sbssg24
S'\x9a\xb7\xe8c#\xd5\x95\x83I\xfd|/\x80\x7f\xe2\x80'
p428
ssS'encodings_hex_codec'
p429
(dp430
g6
(dp431
g8
S'encodings_hex_codec.html'
p432
sg10
S'encodings.hex_codec'
p433
sg11
g12
(g13
g14
NtRp434
(dp435
g17
I1
sg18
I0
sg19
I28
sg20
I0
sg21
I0
sg22
I28
sg23
I0
sbssg24
S'\xa4g4d\xd88\xd4\x16\xeb\xfbb\xac\xbc\xa1h\xc6'
p436
ssS'store'
p437
(dp438
g6
(dp439
g8
S'store.html'
p440
sg10
g437
sg11
g12
(g13
g14
NtRp441
(dp442
g17
I1
sg18
I0
sg19
I0
sg20
I0
sg21
I0
sg22
I0
sg23
I0
sbssg24
S'\xb0\xc8pN\xaf>\xa0\xbaz\x144\xe0A9\xb8?'
p443
ssS'couchbase_result'
p444
(dp445
g6
(dp446
g8
S'couchbase_result.html'
p447
sg10
S'couchbase.result'
p448
sg11
g12
(g13
g14
NtRp449
(dp450
g17
I1
sg18
I0
sg19
I2
sg20
I0
sg21
I0
sg22
I0
sg23
I0
sbssg24
S'\xbc\xa6\xa5\x84\xef\xa2*\r\x16\xd8f\x07\xb6\xab\x1f\xea'
p451
sssS'version'
p452
S'3.7'
p453
sS'settings'
p454
S"\x89G\x02\xb3'\x9f]\xf5\xa8\xa4oV_\xd5\xb0\x7f"
p455
sS'format'
p456
I1
s.